; Function Attrs: nounwind uwtable
define ptr @l_Lean_Expr_withAppAux___at_Lean_Meta_ACLt_main_allChildrenLt___spec__3___lambda__2___boxed(ptr noundef %0, ptr noundef %1, ptr noundef %2, ptr noundef %3, ptr noundef %4, ptr noundef %5, ptr noundef %6, ptr noundef %7, ptr noundef %8, ptr noundef %9, ptr noundef %10, ptr noundef %11, ptr noundef %12) local_unnamed_addr #1 {
  %14 = ptrtoint ptr %2 to i64
  %15 = lshr i64 %14, 1
  %16 = trunc i64 %15 to i8
  %17 = and i64 %14, 1
  %.not = icmp eq i64 %17, 0
  br i1 %.not, label %18, label %lean_dec.exit20

18:                                               ; preds = %13
  %19 = load i32, ptr %2, align 4, !tbaa !4
  %20 = icmp sgt i32 %19, 1
  br i1 %20, label %21, label %23, !prof !9

21:                                               ; preds = %18
  %22 = add nsw i32 %19, -1
  store i32 %22, ptr %2, align 4, !tbaa !4
  br label %lean_dec.exit20

23:                                               ; preds = %18
  %.not.i = icmp eq i32 %19, 0
  br i1 %.not.i, label %lean_dec.exit20, label %24

24:                                               ; preds = %23
  tail call void @lean_dec_ref_cold(ptr noundef nonnull %2) #8
  br label %lean_dec.exit20

lean_dec.exit20:                                  ; preds = %24, %23, %21, %13
  %25 = tail call ptr @l_Lean_Expr_withAppAux___at_Lean_Meta_ACLt_main_allChildrenLt___spec__3___lambda__2(ptr noundef %0, ptr noundef %1, i8 noundef zeroext %16, ptr noundef %3, ptr noundef %4, ptr poison, ptr noundef %6, ptr poison, ptr noundef %8, ptr noundef %9, ptr noundef %10, ptr noundef %11, ptr noundef %12)
  %26 = ptrtoint ptr %7 to i64
  %27 = and i64 %26, 1
  %.not27 = icmp eq i64 %27, 0
  br i1 %.not27, label %28, label %lean_dec.exit19

28:                                               ; preds = %lean_dec.exit20
  %29 = load i32, ptr %7, align 4, !tbaa !4
  %30 = icmp sgt i32 %29, 1
  br i1 %30, label %31, label %33, !prof !9

31:                                               ; preds = %28
  %32 = add nsw i32 %29, -1
  store i32 %32, ptr %7, align 4, !tbaa !4
  br label %lean_dec.exit19

33:                                               ; preds = %28
  %.not.i21 = icmp eq i32 %29, 0
  br i1 %.not.i21, label %lean_dec.exit19, label %34

34:                                               ; preds = %33
  tail call void @lean_dec_ref_cold(ptr noundef nonnull %7) #8
  br label %lean_dec.exit19

lean_dec.exit19:                                  ; preds = %34, %33, %31, %lean_dec.exit20
  %35 = ptrtoint ptr %5 to i64
  %36 = and i64 %35, 1
  %.not28 = icmp eq i64 %36, 0
  br i1 %.not28, label %37, label %lean_dec.exit18

37:                                               ; preds = %lean_dec.exit19
  %38 = load i32, ptr %5, align 4, !tbaa !4
  %39 = icmp sgt i32 %38, 1
  br i1 %39, label %40, label %42, !prof !9

40:                                               ; preds = %37
  %41 = add nsw i32 %38, -1
  store i32 %41, ptr %5, align 4, !tbaa !4
  br label %lean_dec.exit18

42:                                               ; preds = %37
  %.not.i23 = icmp eq i32 %38, 0
  br i1 %.not.i23, label %lean_dec.exit18, label %43

43:                                               ; preds = %42
  tail call void @lean_dec_ref_cold(ptr noundef nonnull %5) #8
  br label %lean_dec.exit18

lean_dec.exit18:                                  ; preds = %43, %42, %40, %lean_dec.exit19
  %44 = ptrtoint ptr %4 to i64
  %45 = and i64 %44, 1
  %.not29 = icmp eq i64 %45, 0
  br i1 %.not29, label %46, label %lean_dec.exit

46:                                               ; preds = %lean_dec.exit18
  %47 = load i32, ptr %4, align 4, !tbaa !4
  %48 = icmp sgt i32 %47, 1
  br i1 %48, label %49, label %51, !prof !9

49:                                               ; preds = %46
  %50 = add nsw i32 %47, -1
  store i32 %50, ptr %4, align 4, !tbaa !4
  br label %lean_dec.exit

51:                                               ; preds = %46
  %.not.i25 = icmp eq i32 %47, 0
  br i1 %.not.i25, label %lean_dec.exit, label %52

52:                                               ; preds = %51
  tail call void @lean_dec_ref_cold(ptr noundef nonnull %4) #8
  br label %lean_dec.exit

lean_dec.exit:                                    ; preds = %52, %51, %49, %lean_dec.exit18
  ret ptr %25
}